; Function Attrs: mustprogress nounwind uwtable
define dso_local noundef zeroext i1 @_ZN4llvm9MCContext28isELFGenericMergeableSectionENS_9StringRefE(ptr noundef nonnull align 8 dereferenceable(2432) %0, ptr %1, i64 %2) local_unnamed_addr #0 align 2 {
  %4 = alloca %"class.llvm::StringRef", align 8
  store ptr %1, ptr %4, align 8
  %5 = getelementptr inbounds nuw i8, ptr %4, i64 8
  store i64 %2, ptr %5, align 8
  %.not.i.i = icmp ult i64 %2, 11
  br i1 %.not.i.i, label %_ZN4llvm9MCContext39isELFImplicitMergeableSectionNamePrefixENS_9StringRefE.exit.thread1, label %_ZNK4llvm9StringRef11starts_withES0_.exit.i

_ZNK4llvm9StringRef11starts_withES0_.exit.i:      ; preds = %3
  %bcmp.i.i = tail call i32 @bcmp(ptr noundef nonnull readonly dereferenceable(11) %1, ptr noundef nonnull dereferenceable(11) @.str.12, i64 11)
  %6 = icmp eq i32 %bcmp.i.i, 0
  br i1 %6, label %_ZN4llvm9MCContext39isELFImplicitMergeableSectionNamePrefixENS_9StringRefE.exit.thread, label %_ZN4llvm9MCContext39isELFImplicitMergeableSectionNamePrefixENS_9StringRefE.exit

_ZN4llvm9MCContext39isELFImplicitMergeableSectionNamePrefixENS_9StringRefE.exit: ; preds = %_ZNK4llvm9StringRef11starts_withES0_.exit.i
  %bcmp.i2.i = tail call i32 @bcmp(ptr noundef nonnull readonly dereferenceable(11) %1, ptr noundef nonnull dereferenceable(11) @.str.13, i64 11)
  %7 = icmp eq i32 %bcmp.i2.i, 0
  br i1 %7, label %_ZN4llvm9MCContext39isELFImplicitMergeableSectionNamePrefixENS_9StringRefE.exit.thread, label %_ZN4llvm9MCContext39isELFImplicitMergeableSectionNamePrefixENS_9StringRefE.exit.thread1

_ZN4llvm9MCContext39isELFImplicitMergeableSectionNamePrefixENS_9StringRefE.exit.thread1: ; preds = %3, %_ZN4llvm9MCContext39isELFImplicitMergeableSectionNamePrefixENS_9StringRefE.exit
  %8 = getelementptr inbounds nuw i8, ptr %0, i64 2408
  %9 = call noundef ptr @_ZN4llvm12DenseMapBaseINS_8DenseMapINS_9StringRefENS_6detail13DenseSetEmptyENS_12DenseMapInfoIS2_vEENS3_12DenseSetPairIS2_EEEES2_S4_S6_S8_E6doFindIS2_EEPS8_RKT_(ptr noundef nonnull align 1 dereferenceable(1) %8, ptr noundef nonnull align 8 dereferenceable(16) %4)
  %10 = icmp ne ptr %9, null
  br label %_ZN4llvm9MCContext39isELFImplicitMergeableSectionNamePrefixENS_9StringRefE.exit.thread

_ZN4llvm9MCContext39isELFImplicitMergeableSectionNamePrefixENS_9StringRefE.exit.thread: ; preds = %_ZNK4llvm9StringRef11starts_withES0_.exit.i, %_ZN4llvm9MCContext39isELFImplicitMergeableSectionNamePrefixENS_9StringRefE.exit.thread1, %_ZN4llvm9MCContext39isELFImplicitMergeableSectionNamePrefixENS_9StringRefE.exit
  %11 = phi i1 [ true, %_ZN4llvm9MCContext39isELFImplicitMergeableSectionNamePrefixENS_9StringRefE.exit ], [ %10, %_ZN4llvm9MCContext39isELFImplicitMergeableSectionNamePrefixENS_9StringRefE.exit.thread1 ], [ true, %_ZNK4llvm9StringRef11starts_withES0_.exit.i ]
  ret i1 %11
}